ccopy_reg
_reconstructor
p1
(cmatplotlib.font_manager
FontManager
p2
c__builtin__
object
p3
NtRp4
(dp5
S'ttflist'
p6
(lp7
g1
(cmatplotlib.font_manager
FontEntry
p8
g3
NtRp9
(dp10
S'style'
p11
Vnormal
p12
sS'name'
p13
VSTIXGeneral
p14
sS'weight'
p15
I400
sS'stretch'
p16
g12
sS'variant'
p17
g12
sS'fname'
p18
V/usr/local/lib/python2.7/dist-packages/matplotlib/mpl-data/fonts/ttf/STIXGeneral.ttf
p19
sS'size'
p20
Vscalable
p21
sbag1
(g8
g3
NtRp22
(dp23
g11
g12
sg13
VSTIXSizeFourSym
p24
sg15
I400
sg16
g12
sg17
g12
sg18
V/usr/local/lib/python2.7/dist-packages/matplotlib/mpl-data/fonts/ttf/STIXSizFourSymReg.ttf
p25
sg20
g21
sbag1
(g8
g3
NtRp26
(dp27
g11
g12
sg13
VDejaVu Serif
p28
sg15
I400
sg16
g12
sg17
g12
sg18
V/usr/local/lib/python2.7/dist-packages/matplotlib/mpl-data/fonts/ttf/DejaVuSerif.ttf
p29
sg20
g21
sbag1
(g8
g3
NtRp30
(dp31
g11
g12
sg13
VSTIXGeneral
p32
sg15
I700
sg16
g12
sg17
g12
sg18
V/usr/local/lib/python2.7/dist-packages/matplotlib/mpl-data/fonts/ttf/STIXGeneralBol.ttf
p33
sg20
g21
sbag1
(g8
g3
NtRp34
(dp35
g11
g12
sg13
VDejaVu Sans
p36
sg15
I400
sg16
g12
sg17
g12
sg18
V/usr/local/lib/python2.7/dist-packages/matplotlib/mpl-data/fonts/ttf/DejaVuSans.ttf
p37
sg20
g21
sbag1
(g8
g3
NtRp38
(dp39
g11
g12
sg13
Vcmr10
p40
sg15
I400
sg16
g12
sg17
g12
sg18
V/usr/local/lib/python2.7/dist-packages/matplotlib/mpl-data/fonts/ttf/cmr10.ttf
p41
sg20
g21
sbag1
(g8
g3
NtRp42
(dp43
g11
g12
sg13
VSTIXNonUnicode
p44
sg15
I700
sg16
g12
sg17
g12
sg18
V/usr/local/lib/python2.7/dist-packages/matplotlib/mpl-data/fonts/ttf/STIXNonUniBol.ttf
p45
sg20
g21
sbag1
(g8
g3
NtRp46
(dp47
g11
g12
sg13
VSTIXSizeTwoSym
p48
sg15
I400
sg16
g12
sg17
g12
sg18
V/usr/local/lib/python2.7/dist-packages/matplotlib/mpl-data/fonts/ttf/STIXSizTwoSymReg.ttf
p49
sg20
g21
sbag1
(g8
g3
NtRp50
(dp51
g11
g12
sg13
VDejaVu Serif
p52
sg15
I700
sg16
g12
sg17
g12
sg18
V/usr/local/lib/python2.7/dist-packages/matplotlib/mpl-data/fonts/ttf/DejaVuSerif-Bold.ttf
p53
sg20
g21
sbag1
(g8
g3
NtRp54
(dp55
g11
Voblique
p56
sg13
VDejaVu Sans Mono
p57
sg15
I400
sg16
g12
sg17
g12
sg18
V/usr/local/lib/python2.7/dist-packages/matplotlib/mpl-data/fonts/ttf/DejaVuSansMono-Oblique.ttf
p58
sg20
g21
sbag1
(g8
g3
NtRp59
(dp60
g11
g56
sg13
VDejaVu Sans Mono
p61
sg15
I700
sg16
g12
sg17
g12
sg18
V/usr/local/lib/python2.7/dist-packages/matplotlib/mpl-data/fonts/ttf/DejaVuSansMono-BoldOblique.ttf
p62
sg20
g21
sbag1
(g8
g3
NtRp63
(dp64
g11
g12
sg13
VSTIXSizeThreeSym
p65
sg15
I700
sg16
g12
sg17
g12
sg18
V/usr/local/lib/python2.7/dist-packages/matplotlib/mpl-data/fonts/ttf/STIXSizThreeSymBol.ttf
p66
sg20
g21
sbag1
(g8
g3
NtRp67
(dp68
g11
g12
sg13
VSTIXSizeOneSym
p69
sg15
I700
sg16
g12
sg17
g12
sg18
V/usr/local/lib/python2.7/dist-packages/matplotlib/mpl-data/fonts/ttf/STIXSizOneSymBol.ttf
p70
sg20
g21
sbag1
(g8
g3
NtRp71
(dp72
g11
Vitalic
p73
sg13
VSTIXGeneral
p74
sg15
I700
sg16
g12
sg17
g12
sg18
V/usr/local/lib/python2.7/dist-packages/matplotlib/mpl-data/fonts/ttf/STIXGeneralBolIta.ttf
p75
sg20
g21
sbag1
(g8
g3
NtRp76
(dp77
g11
g12
sg13
VDejaVu Sans Display
p78
sg15
I400
sg16
g12
sg17
g12
sg18
V/usr/local/lib/python2.7/dist-packages/matplotlib/mpl-data/fonts/ttf/DejaVuSansDisplay.ttf
p79
sg20
g21
sbag1
(g8
g3
NtRp80
(dp81
g11
g12
sg13
VDejaVu Sans
p82
sg15
I700
sg16
g12
sg17
g12
sg18
V/usr/local/lib/python2.7/dist-packages/matplotlib/mpl-data/fonts/ttf/DejaVuSans-Bold.ttf
p83
sg20
g21
sbag1
(g8
g3
NtRp84
(dp85
g11
g12
sg13
Vcmsy10
p86
sg15
I400
sg16
g12
sg17
g12
sg18
V/usr/local/lib/python2.7/dist-packages/matplotlib/mpl-data/fonts/ttf/cmsy10.ttf
p87
sg20
g21
sbag1
(g8
g3
NtRp88
(dp89
g11
g12
sg13
Vcmss10
p90
sg15
I400
sg16
g12
sg17
g12
sg18
V/usr/local/lib/python2.7/dist-packages/matplotlib/mpl-data/fonts/ttf/cmss10.ttf
p91
sg20
g21
sbag1
(g8
g3
NtRp92
(dp93
g11
g73
sg13
VSTIXNonUnicode
p94
sg15
I700
sg16
g12
sg17
g12
sg18
V/usr/local/lib/python2.7/dist-packages/matplotlib/mpl-data/fonts/ttf/STIXNonUniBolIta.ttf
p95
sg20
g21
sbag1
(g8
g3
NtRp96
(dp97
g11
g12
sg13
Vcmmi10
p98
sg15
I400
sg16
g12
sg17
g12
sg18
V/usr/local/lib/python2.7/dist-packages/matplotlib/mpl-data/fonts/ttf/cmmi10.ttf
p99
sg20
g21
sbag1
(g8
g3
NtRp100
(dp101
g11
g12
sg13
Vcmb10
p102
sg15
I400
sg16
g12
sg17
g12
sg18
V/usr/local/lib/python2.7/dist-packages/matplotlib/mpl-data/fonts/ttf/cmb10.ttf
p103
sg20
g21
sbag1
(g8
g3
NtRp104
(dp105
g11
g56
sg13
VDejaVu Sans
p106
sg15
I700
sg16
g12
sg17
g12
sg18
V/usr/local/lib/python2.7/dist-packages/matplotlib/mpl-data/fonts/ttf/DejaVuSans-BoldOblique.ttf
p107
sg20
g21
sbag1
(g8
g3
NtRp108
(dp109
g11
g12
sg13
VSTIXSizeFiveSym
p110
sg15
I400
sg16
g12
sg17
g12
sg18
V/usr/local/lib/python2.7/dist-packages/matplotlib/mpl-data/fonts/ttf/STIXSizFiveSymReg.ttf
p111
sg20
g21
sbag1
(g8
g3
NtRp112
(dp113
g11
g12
sg13
VSTIXSizeTwoSym
p114
sg15
I700
sg16
g12
sg17
g12
sg18
V/usr/local/lib/python2.7/dist-packages/matplotlib/mpl-data/fonts/ttf/STIXSizTwoSymBol.ttf
p115
sg20
g21
sbag1
(g8
g3
NtRp116
(dp117
g11
g73
sg13
VSTIXNonUnicode
p118
sg15
I400
sg16
g12
sg17
g12
sg18
V/usr/local/lib/python2.7/dist-packages/matplotlib/mpl-data/fonts/ttf/STIXNonUniIta.ttf
p119
sg20
g21
sbag1
(g8
g3
NtRp120
(dp121
g11
g12
sg13
VSTIXSizeFourSym
p122
sg15
I700
sg16
g12
sg17
g12
sg18
V/usr/local/lib/python2.7/dist-packages/matplotlib/mpl-data/fonts/ttf/STIXSizFourSymBol.ttf
p123
sg20
g21
sbag1
(g8
g3
NtRp124
(dp125
g11
g12
sg13
VDejaVu Serif Display
p126
sg15
I400
sg16
g12
sg17
g12
sg18
V/usr/local/lib/python2.7/dist-packages/matplotlib/mpl-data/fonts/ttf/DejaVuSerifDisplay.ttf
p127
sg20
g21
sbag1
(g8
g3
NtRp128
(dp129
g11
g73
sg13
VDejaVu Serif
p130
sg15
I400
sg16
g12
sg17
g12
sg18
V/usr/local/lib/python2.7/dist-packages/matplotlib/mpl-data/fonts/ttf/DejaVuSerif-Italic.ttf
p131
sg20
g21
sbag1
(g8
g3
NtRp132
(dp133
g11
g12
sg13
VDejaVu Sans Mono
p134
sg15
I400
sg16
g12
sg17
g12
sg18
V/usr/local/lib/python2.7/dist-packages/matplotlib/mpl-data/fonts/ttf/DejaVuSansMono.ttf
p135
sg20
g21
sbag1
(g8
g3
NtRp136
(dp137
g11
g73
sg13
VDejaVu Serif
p138
sg15
I700
sg16
g12
sg17
g12
sg18
V/usr/local/lib/python2.7/dist-packages/matplotlib/mpl-data/fonts/ttf/DejaVuSerif-BoldItalic.ttf
p139
sg20
g21
sbag1
(g8
g3
NtRp140
(dp141
g11
g56
sg13
VDejaVu Sans
p142
sg15
I400
sg16
g12
sg17
g12
sg18
V/usr/local/lib/python2.7/dist-packages/matplotlib/mpl-data/fonts/ttf/DejaVuSans-Oblique.ttf
p143
sg20
g21
sbag1
(g8
g3
NtRp144
(dp145
g11
g12
sg13
VSTIXNonUnicode
p146
sg15
I400
sg16
g12
sg17
g12
sg18
V/usr/local/lib/python2.7/dist-packages/matplotlib/mpl-data/fonts/ttf/STIXNonUni.ttf
p147
sg20
g21
sbag1
(g8
g3
NtRp148
(dp149
g11
g12
sg13
Vcmex10
p150
sg15
I400
sg16
g12
sg17
g12
sg18
V/usr/local/lib/python2.7/dist-packages/matplotlib/mpl-data/fonts/ttf/cmex10.ttf
p151
sg20
g21
sbag1
(g8
g3
NtRp152
(dp153
g11
g12
sg13
VSTIXSizeThreeSym
p154
sg15
I400
sg16
g12
sg17
g12
sg18
V/usr/local/lib/python2.7/dist-packages/matplotlib/mpl-data/fonts/ttf/STIXSizThreeSymReg.ttf
p155
sg20
g21
sbag1
(g8
g3
NtRp156
(dp157
g11
g12
sg13
VDejaVu Sans Mono
p158
sg15
I700
sg16
g12
sg17
g12
sg18
V/usr/local/lib/python2.7/dist-packages/matplotlib/mpl-data/fonts/ttf/DejaVuSansMono-Bold.ttf
p159
sg20
g21
sbag1
(g8
g3
NtRp160
(dp161
g11
g12
sg13
VSTIXSizeOneSym
p162
sg15
I400
sg16
g12
sg17
g12
sg18
V/usr/local/lib/python2.7/dist-packages/matplotlib/mpl-data/fonts/ttf/STIXSizOneSymReg.ttf
p163
sg20
g21
sbag1
(g8
g3
NtRp164
(dp165
g11
g12
sg13
Vcmtt10
p166
sg15
I400
sg16
g12
sg17
g12
sg18
V/usr/local/lib/python2.7/dist-packages/matplotlib/mpl-data/fonts/ttf/cmtt10.ttf
p167
sg20
g21
sbag1
(g8
g3
NtRp168
(dp169
g11
g73
sg13
VSTIXGeneral
p170
sg15
I400
sg16
g12
sg17
g12
sg18
V/usr/local/lib/python2.7/dist-packages/matplotlib/mpl-data/fonts/ttf/STIXGeneralItalic.ttf
p171
sg20
g21
sbag1
(g8
g3
NtRp172
(dp173
g11
g12
sg13
VSTIXIntegralsUp
p174
sg15
I400
sg16
g12
sg17
g12
sg18
V/usr/share/fonts/opentype/stix/STIXIntegralsUp-Regular.otf
p175
sg20
g21
sbag1
(g8
g3
NtRp176
(dp177
g11
g12
sg13
VKacstTitle
p178
sg15
I400
sg16
g12
sg17
g12
sg18
V/usr/share/fonts/truetype/kacst/KacstTitle.ttf
p179
sg20
g21
sbag1
(g8
g3
NtRp180
(dp181
g11
g12
sg13
VUbuntu
p182
sg15
I500
sg16
g12
sg17
g12
sg18
V/usr/share/fonts/truetype/ubuntu-font-family/Ubuntu-M.ttf
p183
sg20
g21
sbag1
(g8
g3
NtRp184
(dp185
g11
g73
sg13
VLaksaman
p186
sg15
I700
sg16
g12
sg17
g12
sg18
V/usr/share/fonts/truetype/tlwg/Laksaman-BoldItalic.ttf
p187
sg20
g21
sbag1
(g8
g3
NtRp188
(dp189
g11
g12
sg13
VUmpush
p190
sg15
I400
sg16
g12
sg17
g12
sg18
V/usr/share/fonts/truetype/tlwg/Umpush.ttf
p191
sg20
g21
sbag1
(g8
g3
NtRp192
(dp193
g11
g12
sg13
VGaruda
p194
sg15
I700
sg16
g12
sg17
g12
sg18
V/usr/share/fonts/truetype/tlwg/Garuda-Bold.ttf
p195
sg20
g21
sbag1
(g8
g3
NtRp196
(dp197
g11
g56
sg13
VTlwg Typist
p198
sg15
I700
sg16
g12
sg17
g12
sg18
V/usr/share/fonts/truetype/tlwg/TlwgTypist-BoldOblique.ttf
p199
sg20
g21
sbag1
(g8
g3
NtRp200
(dp201
g11
g12
sg13
VKacstScreen
p202
sg15
I400
sg16
g12
sg17
g12
sg18
V/usr/share/fonts/truetype/kacst/KacstScreen.ttf
p203
sg20
g21
sbag1
(g8
g3
NtRp204
(dp205
g11
g56
sg13
VLoma
p206
sg15
I400
sg16
g12
sg17
g12
sg18
V/usr/share/fonts/truetype/tlwg/Loma-Oblique.ttf
p207
sg20
g21
sbag1
(g8
g3
NtRp208
(dp209
g11
g56
sg13
VNorasi
p210
sg15
I400
sg16
g12
sg17
g12
sg18
V/usr/share/fonts/truetype/tlwg/Norasi-Oblique.ttf
p211
sg20
g21
sbag1
(g8
g3
NtRp212
(dp213
g11
g73
sg13
VUbuntu
p214
sg15
I700
sg16
g12
sg17
g12
sg18
V/usr/share/fonts/truetype/ubuntu-font-family/Ubuntu-BI.ttf
p215
sg20
g21
sbag1
(g8
g3
NtRp216
(dp217
g11
g12
sg13
VTakaoPGothic
p218
sg15
I400
sg16
g12
sg17
g12
sg18
V/usr/share/fonts/truetype/fonts-japanese-gothic.ttf
p219
sg20
g21
sbag1
(g8
g3
NtRp220
(dp221
g11
g12
sg13
VLiberation Mono
p222
sg15
I700
sg16
g12
sg17
g12
sg18
V/usr/share/fonts/truetype/liberation/LiberationMono-Bold.ttf
p223
sg20
g21
sbag1
(g8
g3
NtRp224
(dp225
g11
g56
sg13
VUmpush
p226
sg15
I200
sg16
g12
sg17
g12
sg18
V/usr/share/fonts/truetype/tlwg/Umpush-LightOblique.ttf
p227
sg20
g21
sbag1
(g8
g3
NtRp228
(dp229
g11
g12
sg13
VFreeSerif
p230
sg15
I700
sg16
g12
sg17
g12
sg18
V/usr/share/fonts/truetype/freefont/FreeSerifBold.ttf
p231
sg20
g21
sbag1
(g8
g3
NtRp232
(dp233
g11
g56
sg13
VFreeMono
p234
sg15
I700
sg16
g12
sg17
g12
sg18
V/usr/share/fonts/truetype/freefont/FreeMonoBoldOblique.ttf
p235
sg20
g21
sbag1
(g8
g3
NtRp236
(dp237
g11
g12
sg13
VTlwg Typo
p238
sg15
I400
sg16
g12
sg17
g12
sg18
V/usr/share/fonts/truetype/tlwg/TlwgTypo.ttf
p239
sg20
g21
sbag1
(g8
g3
NtRp240
(dp241
g11
g73
sg13
VLiberation Serif
p242
sg15
I400
sg16
g12
sg17
g12
sg18
V/usr/share/fonts/truetype/liberation/LiberationSerif-Italic.ttf
p243
sg20
g21
sbag1
(g8
g3
NtRp244
(dp245
g11
g12
sg13
VLKLUG
p246
sg15
I400
sg16
g12
sg17
g12
sg18
V/usr/share/fonts/truetype/sinhala/lklug.ttf
p247
sg20
g21
sbag1
(g8
g3
NtRp248
(dp249
g11
g56
sg13
VFreeSans
p250
sg15
I400
sg16
g12
sg17
g12
sg18
V/usr/share/fonts/truetype/freefont/FreeSansOblique.ttf
p251
sg20
g21
sbag1
(g8
g3
NtRp252
(dp253
g11
g73
sg13
VSTIXGeneral
p254
sg15
I400
sg16
g12
sg17
g12
sg18
V/usr/share/fonts/opentype/stix/STIXGeneral-Italic.otf
p255
sg20
g21
sbag1
(g8
g3
NtRp256
(dp257
g11
g12
sg13
VLiberation Sans
p258
sg15
I700
sg16
g12
sg17
g12
sg18
V/usr/share/fonts/truetype/liberation/LiberationSans-Bold.ttf
p259
sg20
g21
sbag1
(g8
g3
NtRp260
(dp261
g11
g12
sg13
VSTIX Math
p262
sg15
I400
sg16
g12
sg17
g12
sg18
V/usr/share/fonts/opentype/stix-word/STIXMath-Regular.otf
p263
sg20
g21
sbag1
(g8
g3
NtRp264
(dp265
g11
g12
sg13
VLaksaman
p266
sg15
I400
sg16
g12
sg17
g12
sg18
V/usr/share/fonts/truetype/tlwg/Laksaman.ttf
p267
sg20
g21
sbag1
(g8
g3
NtRp268
(dp269
g11
g12
sg13
VLiberation Mono
p270
sg15
I400
sg16
g12
sg17
g12
sg18
V/usr/share/fonts/truetype/liberation/LiberationMono-Regular.ttf
p271
sg20
g21
sbag1
(g8
g3
NtRp272
(dp273
g11
g12
sg13
VSTIXVariants
p274
sg15
I400
sg16
g12
sg17
g12
sg18
V/usr/share/fonts/opentype/stix/STIXVariants-Regular.otf
p275
sg20
g21
sbag1
(g8
g3
NtRp276
(dp277
g11
g12
sg13
VUbuntu
p278
sg15
I400
sg16
g12
sg17
g12
sg18
V/usr/share/fonts/truetype/ubuntu-font-family/Ubuntu-R.ttf
p279
sg20
g21
sbag1
(g8
g3
NtRp280
(dp281
g11
g12
sg13
VGaruda
p282
sg15
I400
sg16
g12
sg17
g12
sg18
V/usr/share/fonts/truetype/tlwg/Garuda.ttf
p283
sg20
g21
sbag1
(g8
g3
NtRp284
(dp285
g11
g56
sg13
VTlwg Mono
p286
sg15
I400
sg16
g12
sg17
g12
sg18
V/usr/share/fonts/truetype/tlwg/TlwgMono-Oblique.ttf
p287
sg20
g21
sbag1
(g8
g3
NtRp288
(dp289
g11
g12
sg13
VSTIXGeneral
p290
sg15
I400
sg16
g12
sg17
g12
sg18
V/usr/share/fonts/opentype/stix/STIXGeneral-Regular.otf
p291
sg20
g21
sbag1
(g8
g3
NtRp292
(dp293
g11
g12
sg13
VNanumBarunGothic
p294
sg15
I700
sg16
g12
sg17
g12
sg18
V/usr/share/fonts/truetype/nanum/NanumBarunGothicBold.ttf
p295
sg20
g21
sbag1
(g8
g3
NtRp296
(dp297
g11
g12
sg13
VTlwg Typist
p298
sg15
I400
sg16
g12
sg17
g12
sg18
V/usr/share/fonts/truetype/tlwg/TlwgTypist.ttf
p299
sg20
g21
sbag1
(g8
g3
NtRp300
(dp301
g11
g12
sg13
VNanumGothic
p302
sg15
I400
sg16
g12
sg17
g12
sg18
V/usr/share/fonts/truetype/nanum/NanumGothic.ttf
p303
sg20
g21
sbag1
(g8
g3
NtRp304
(dp305
g11
g12
sg13
Vmry_KacstQurn
p306
sg15
I400
sg16
g12
sg17
g12
sg18
V/usr/share/fonts/truetype/kacst/mry_KacstQurn.ttf
p307
sg20
g21
sbag1
(g8
g3
NtRp308
(dp309
g11
g12
sg13
VTlwg Mono
p310
sg15
I700
sg16
g12
sg17
g12
sg18
V/usr/share/fonts/truetype/tlwg/TlwgMono-Bold.ttf
p311
sg20
g21
sbag1
(g8
g3
NtRp312
(dp313
g11
g73
sg13
VLiberation Mono
p314
sg15
I400
sg16
g12
sg17
g12
sg18
V/usr/share/fonts/truetype/liberation/LiberationMono-Italic.ttf
p315
sg20
g21
sbag1
(g8
g3
NtRp316
(dp317
g11
g12
sg13
VTibetan Machine Uni
p318
sg15
I400
sg16
g12
sg17
g12
sg18
V/usr/share/fonts/truetype/tibetan-machine/TibetanMachineUni.ttf
p319
sg20
g21
sbag1
(g8
g3
NtRp320
(dp321
g11
g73
sg13
VLiberation Serif
p322
sg15
I700
sg16
g12
sg17
g12
sg18
V/usr/share/fonts/truetype/liberation/LiberationSerif-BoldItalic.ttf
p323
sg20
g21
sbag1
(g8
g3
NtRp324
(dp325
g11
g12
sg13
VLohit Punjabi
p326
sg15
I400
sg16
g12
sg17
g12
sg18
V/usr/share/fonts/truetype/lohit-punjabi/Lohit-Punjabi.ttf
p327
sg20
g21
sbag1
(g8
g3
NtRp328
(dp329
g11
g12
sg13
VSTIXSizeFourSym
p330
sg15
I400
sg16
g12
sg17
g12
sg18
V/usr/share/fonts/opentype/stix/STIXSizeFourSym-Regular.otf
p331
sg20
g21
sbag1
(g8
g3
NtRp332
(dp333
g11
g12
sg13
VLiberation Serif
p334
sg15
I700
sg16
g12
sg17
g12
sg18
V/usr/share/fonts/truetype/liberation/LiberationSerif-Bold.ttf
p335
sg20
g21
sbag1
(g8
g3
NtRp336
(dp337
g11
g12
sg13
VKacstOne
p338
sg15
I700
sg16
g12
sg17
g12
sg18
V/usr/share/fonts/truetype/kacst-one/KacstOne-Bold.ttf
p339
sg20
g21
sbag1
(g8
g3
NtRp340
(dp341
g11
g73
sg13
VSTIXGeneral
p342
sg15
I700
sg16
g12
sg17
g12
sg18
V/usr/share/fonts/opentype/stix/STIXGeneral-BoldItalic.otf
p343
sg20
g21
sbag1
(g8
g3
NtRp344
(dp345
g11
g12
sg13
VNanumMyeongjo
p346
sg15
I700
sg16
g12
sg17
g12
sg18
V/usr/share/fonts/truetype/nanum/NanumMyeongjoBold.ttf
p347
sg20
g21
sbag1
(g8
g3
NtRp348
(dp349
g11
g12
sg13
VWaree
p350
sg15
I700
sg16
g12
sg17
g12
sg18
V/usr/share/fonts/truetype/tlwg/Waree-Bold.ttf
p351
sg20
g21
sbag1
(g8
g3
NtRp352
(dp353
g11
g12
sg13
VSTIXIntegralsUp
p354
sg15
I700
sg16
g12
sg17
g12
sg18
V/usr/share/fonts/opentype/stix/STIXIntegralsUp-Bold.otf
p355
sg20
g21
sbag1
(g8
g3
NtRp356
(dp357
g11
g56
sg13
VTlwg Mono
p358
sg15
I700
sg16
g12
sg17
g12
sg18
V/usr/share/fonts/truetype/tlwg/TlwgMono-BoldOblique.ttf
p359
sg20
g21
sbag1
(g8
g3
NtRp360
(dp361
g11
g12
sg13
VSTIXSizeTwoSym
p362
sg15
I400
sg16
g12
sg17
g12
sg18
V/usr/share/fonts/opentype/stix/STIXSizeTwoSym-Regular.otf
p363
sg20
g21
sbag1
(g8
g3
NtRp364
(dp365
g11
g12
sg13
VKacstQurn
p366
sg15
I400
sg16
g12
sg17
g12
sg18
V/usr/share/fonts/truetype/kacst/KacstQurn.ttf
p367
sg20
g21
sbag1
(g8
g3
NtRp368
(dp369
g11
g12
sg13
VKacstDigital
p370
sg15
I400
sg16
g12
sg17
g12
sg18
V/usr/share/fonts/truetype/kacst/KacstDigital.ttf
p371
sg20
g21
sbag1
(g8
g3
NtRp372
(dp373
g11
g12
sg13
VSTIXNonUnicode
p374
sg15
I400
sg16
g12
sg17
g12
sg18
V/usr/share/fonts/opentype/stix/STIXNonUnicode-Regular.otf
p375
sg20
g21
sbag1
(g8
g3
NtRp376
(dp377
g11
g12
sg13
VTakaoPGothic
p378
sg15
I400
sg16
g12
sg17
g12
sg18
V/usr/share/fonts/truetype/takao-gothic/TakaoPGothic.ttf
p379
sg20
g21
sbag1
(g8
g3
NtRp380
(dp381
g11
g12
sg13
VLiberation Sans
p382
sg15
I400
sg16
g12
sg17
g12
sg18
V/usr/share/fonts/truetype/liberation/LiberationSans-Regular.ttf
p383
sg20
g21
sbag1
(g8
g3
NtRp384
(dp385
g11
g12
sg13
VSTIXIntegralsUpD
p386
sg15
I400
sg16
g12
sg17
g12
sg18
V/usr/share/fonts/opentype/stix/STIXIntegralsUpD-Regular.otf
p387
sg20
g21
sbag1
(g8
g3
NtRp388
(dp389
g11
g12
sg13
VSTIXSizeFiveSym
p390
sg15
I400
sg16
g12
sg17
g12
sg18
V/usr/share/fonts/opentype/stix/STIXSizeFiveSym-Regular.otf
p391
sg20
g21
sbag1
(g8
g3
NtRp392
(dp393
g11
g12
sg13
VUbuntu Mono
p394
sg15
I400
sg16
g12
sg17
g12
sg18
V/usr/share/fonts/truetype/ubuntu-font-family/UbuntuMono-R.ttf
p395
sg20
g21
sbag1
(g8
g3
NtRp396
(dp397
g11
g12
sg13
VSTIXIntegralsUpSm
p398
sg15
I400
sg16
g12
sg17
g12
sg18
V/usr/share/fonts/opentype/stix/STIXIntegralsUpSm-Regular.otf
p399
sg20
g21
sbag1
(g8
g3
NtRp400
(dp401
g11
g12
sg13
VNorasi
p402
sg15
I700
sg16
g12
sg17
g12
sg18
V/usr/share/fonts/truetype/tlwg/Norasi-Bold.ttf
p403
sg20
g21
sbag1
(g8
g3
NtRp404
(dp405
g11
g73
sg13
VNorasi
p406
sg15
I700
sg16
g12
sg17
g12
sg18
V/usr/share/fonts/truetype/tlwg/Norasi-BoldItalic.ttf
p407
sg20
g21
sbag1
(g8
g3
NtRp408
(dp409
g11
g12
sg13
VLaksaman
p410
sg15
I700
sg16
g12
sg17
g12
sg18
V/usr/share/fonts/truetype/tlwg/Laksaman-Bold.ttf
p411
sg20
g21
sbag1
(g8
g3
NtRp412
(dp413
g11
g12
sg13
VUmpush
p414
sg15
I700
sg16
g12
sg17
g12
sg18
V/usr/share/fonts/truetype/tlwg/Umpush-Bold.ttf
p415
sg20
g21
sbag1
(g8
g3
NtRp416
(dp417
g11
g12
sg13
VSTIX
p418
sg15
I400
sg16
g12
sg17
g12
sg18
V/usr/share/fonts/opentype/stix-word/STIX-Regular.otf
p419
sg20
g21
sbag1
(g8
g3
NtRp420
(dp421
g11
g73
sg13
VLiberation Sans
p422
sg15
I700
sg16
g12
sg17
g12
sg18
V/usr/share/fonts/truetype/liberation/LiberationSans-BoldItalic.ttf
p423
sg20
g21
sbag1
(g8
g3
NtRp424
(dp425
g11
g56
sg13
VKinnari
p426
sg15
I700
sg16
g12
sg17
g12
sg18
V/usr/share/fonts/truetype/tlwg/Kinnari-BoldOblique.ttf
p427
sg20
g21
sbag1
(g8
g3
NtRp428
(dp429
g11
g12
sg13
VKacstNaskh
p430
sg15
I400
sg16
g12
sg17
g12
sg18
V/usr/share/fonts/truetype/kacst/KacstNaskh.ttf
p431
sg20
g21
sbag1
(g8
g3
NtRp432
(dp433
g11
g56
sg13
VNorasi
p434
sg15
I700
sg16
g12
sg17
g12
sg18
V/usr/share/fonts/truetype/tlwg/Norasi-BoldOblique.ttf
p435
sg20
g21
sbag1
(g8
g3
NtRp436
(dp437
g11
g73
sg13
VKinnari
p438
sg15
I700
sg16
g12
sg17
g12
sg18
V/usr/share/fonts/truetype/tlwg/Kinnari-BoldItalic.ttf
p439
sg20
g21
sbag1
(g8
g3
NtRp440
(dp441
g11
g12
sg13
VSawasdee
p442
sg15
I400
sg16
g12
sg17
g12
sg18
V/usr/share/fonts/truetype/tlwg/Sawasdee.ttf
p443
sg20
g21
sbag1
(g8
g3
NtRp444
(dp445
g11
g12
sg13
VKacstOne
p446
sg15
I400
sg16
g12
sg17
g12
sg18
V/usr/share/fonts/truetype/kacst-one/KacstOne.ttf
p447
sg20
g21
sbag1
(g8
g3
NtRp448
(dp449
g11
g12
sg13
VFreeSans
p450
sg15
I700
sg16
g12
sg17
g12
sg18
V/usr/share/fonts/truetype/freefont/FreeSansBold.ttf
p451
sg20
g21
sbag1
(g8
g3
NtRp452
(dp453
g11
g12
sg13
VLiberation Serif
p454
sg15
I400
sg16
g12
sg17
g12
sg18
V/usr/share/fonts/truetype/liberation/LiberationSerif-Regular.ttf
p455
sg20
g21
sbag1
(g8
g3
NtRp456
(dp457
g11
g12
sg13
VPurisa
p458
sg15
I700
sg16
g12
sg17
g12
sg18
V/usr/share/fonts/truetype/tlwg/Purisa-Bold.ttf
p459
sg20
g21
sbag1
(g8
g3
NtRp460
(dp461
g11
g12
sg13
VFreeMono
p462
sg15
I700
sg16
g12
sg17
g12
sg18
V/usr/share/fonts/truetype/freefont/FreeMonoBold.ttf
p463
sg20
g21
sbag1
(g8
g3
NtRp464
(dp465
g11
g12
sg13
VSTIXIntegralsUpD
p466
sg15
I700
sg16
g12
sg17
g12
sg18
V/usr/share/fonts/opentype/stix/STIXIntegralsUpD-Bold.otf
p467
sg20
g21
sbag1
(g8
g3
NtRp468
(dp469
g11
g12
sg13
VTlwg Typist
p470
sg15
I700
sg16
g12
sg17
g12
sg18
V/usr/share/fonts/truetype/tlwg/TlwgTypist-Bold.ttf
p471
sg20
g21
sbag1
(g8
g3
NtRp472
(dp473
g11
g12
sg13
VUbuntu
p474
sg15
I200
sg16
g12
sg17
g12
sg18
V/usr/share/fonts/truetype/ubuntu-font-family/Ubuntu-L.ttf
p475
sg20
g21
sbag1
(g8
g3
NtRp476
(dp477
g11
g12
sg13
VKacstBook
p478
sg15
I400
sg16
g12
sg17
g12
sg18
V/usr/share/fonts/truetype/kacst/KacstBook.ttf
p479
sg20
g21
sbag1
(g8
g3
NtRp480
(dp481
g11
g12
sg13
VKacstFarsi
p482
sg15
I400
sg16
g12
sg17
g12
sg18
V/usr/share/fonts/truetype/kacst/KacstFarsi.ttf
p483
sg20
g21
sbag1
(g8
g3
NtRp484
(dp485
g11
g12
sg13
VKacstPoster
p486
sg15
I400
sg16
g12
sg17
g12
sg18
V/usr/share/fonts/truetype/kacst/KacstPoster.ttf
p487
sg20
g21
sbag1
(g8
g3
NtRp488
(dp489
g11
g12
sg13
VPurisa
p490
sg15
I400
sg16
g12
sg17
g12
sg18
V/usr/share/fonts/truetype/tlwg/Purisa.ttf
p491
sg20
g21
sbag1
(g8
g3
NtRp492
(dp493
g11
g12
sg13
VSTIXSizeOneSym
p494
sg15
I700
sg16
g12
sg17
g12
sg18
V/usr/share/fonts/opentype/stix/STIXSizeOneSym-Bold.otf
p495
sg20
g21
sbag1
(g8
g3
NtRp496
(dp497
g11
g73
sg13
VUbuntu
p498
sg15
I200
sg16
g12
sg17
g12
sg18
V/usr/share/fonts/truetype/ubuntu-font-family/Ubuntu-LI.ttf
p499
sg20
g21
sbag1
(g8
g3
NtRp500
(dp501
g11
g56
sg13
VUmpush
p502
sg15
I400
sg16
g12
sg17
g12
sg18
V/usr/share/fonts/truetype/tlwg/Umpush-Oblique.ttf
p503
sg20
g21
sbag1
(g8
g3
NtRp504
(dp505
g11
g12
sg13
VNanumGothic
p506
sg15
I700
sg16
g12
sg17
g12
sg18
V/usr/share/fonts/truetype/nanum/NanumGothicBold.ttf
p507
sg20
g21
sbag1
(g8
g3
NtRp508
(dp509
g11
g73
sg13
VLiberation Mono
p510
sg15
I700
sg16
g12
sg17
g12
sg18
V/usr/share/fonts/truetype/liberation/LiberationMono-BoldItalic.ttf
p511
sg20
g21
sbag1
(g8
g3
NtRp512
(dp513
g11
g12
sg13
VPadauk
p514
sg15
I700
sg16
g12
sg17
g12
sg18
V/usr/share/fonts/truetype/padauk/Padauk-bold.ttf
p515
sg20
g21
sbag1
(g8
g3
NtRp516
(dp517
g11
g56
sg13
VLoma
p518
sg15
I700
sg16
g12
sg17
g12
sg18
V/usr/share/fonts/truetype/tlwg/Loma-BoldOblique.ttf
p519
sg20
g21
sbag1
(g8
g3
NtRp520
(dp521
g11
g73
sg13
VSTIXNonUnicode
p522
sg15
I400
sg16
g12
sg17
g12
sg18
V/usr/share/fonts/opentype/stix/STIXNonUnicode-Italic.otf
p523
sg20
g21
sbag1
(g8
g3
NtRp524
(dp525
g11
g12
sg13
VTlwg Typewriter
p526
sg15
I400
sg16
g12
sg17
g12
sg18
V/usr/share/fonts/truetype/tlwg/TlwgTypewriter.ttf
p527
sg20
g21
sbag1
(g8
g3
NtRp528
(dp529
g11
g12
sg13
VUbuntu Mono
p530
sg15
I700
sg16
g12
sg17
g12
sg18
V/usr/share/fonts/truetype/ubuntu-font-family/UbuntuMono-B.ttf
p531
sg20
g21
sbag1
(g8
g3
NtRp532
(dp533
g11
g56
sg13
VGaruda
p534
sg15
I700
sg16
g12
sg17
g12
sg18
V/usr/share/fonts/truetype/tlwg/Garuda-BoldOblique.ttf
p535
sg20
g21
sbag1
(g8
g3
NtRp536
(dp537
g11
g12
sg13
VOpenSymbol
p538
sg15
I400
sg16
g12
sg17
g12
sg18
V/usr/share/fonts/truetype/openoffice/opens___.ttf
p539
sg20
g21
sbag1
(g8
g3
NtRp540
(dp541
g11
g56
sg13
VGaruda
p542
sg15
I400
sg16
g12
sg17
g12
sg18
V/usr/share/fonts/truetype/tlwg/Garuda-Oblique.ttf
p543
sg20
g21
sbag1
(g8
g3
NtRp544
(dp545
g11
g73
sg13
VNorasi
p546
sg15
I400
sg16
g12
sg17
g12
sg18
V/usr/share/fonts/truetype/tlwg/Norasi-Italic.ttf
p547
sg20
g21
sbag1
(g8
g3
NtRp548
(dp549
g11
g12
sg13
VKhmer OS System
p550
sg15
I400
sg16
g12
sg17
g12
sg18
V/usr/share/fonts/truetype/ttf-khmeros-core/KhmerOSsys.ttf
p551
sg20
g21
sbag1
(g8
g3
NtRp552
(dp553
g11
g12
sg13
VSTIXSizeThreeSym
p554
sg15
I400
sg16
g12
sg17
g12
sg18
V/usr/share/fonts/opentype/stix/STIXSizeThreeSym-Regular.otf
p555
sg20
g21
sbag1
(g8
g3
NtRp556
(dp557
g11
g56
sg13
VTlwg Typist
p558
sg15
I400
sg16
g12
sg17
g12
sg18
V/usr/share/fonts/truetype/tlwg/TlwgTypist-Oblique.ttf
p559
sg20
g21
sbag1
(g8
g3
NtRp560
(dp561
g11
g12
sg13
VNorasi
p562
sg15
I400
sg16
g12
sg17
g12
sg18
V/usr/share/fonts/truetype/tlwg/Norasi.ttf
p563
sg20
g21
sbag1
(g8
g3
NtRp564
(dp565
g11
g73
sg13
VLiberation Sans
p566
sg15
I400
sg16
g12
sg17
g12
sg18
V/usr/share/fonts/truetype/liberation/LiberationSans-Italic.ttf
p567
sg20
g21
sbag1
(g8
g3
NtRp568
(dp569
g11
g56
sg13
VUmpush
p570
sg15
I700
sg16
g12
sg17
g12
sg18
V/usr/share/fonts/truetype/tlwg/Umpush-BoldOblique.ttf
p571
sg20
g21
sbag1
(g8
g3
NtRp572
(dp573
g11
g12
sg13
VUbuntu
p574
sg15
I700
sg16
g12
sg17
g12
sg18
V/usr/share/fonts/truetype/ubuntu-font-family/Ubuntu-B.ttf
p575
sg20
g21
sbag1
(g8
g3
NtRp576
(dp577
g11
g56
sg13
VFreeSans
p578
sg15
I700
sg16
g12
sg17
g12
sg18
V/usr/share/fonts/truetype/freefont/FreeSansBoldOblique.ttf
p579
sg20
g21
sbag1
(g8
g3
NtRp580
(dp581
g11
g12
sg13
VTlwg Typo
p582
sg15
I700
sg16
g12
sg17
g12
sg18
V/usr/share/fonts/truetype/tlwg/TlwgTypo-Bold.ttf
p583
sg20
g21
sbag1
(g8
g3
NtRp584
(dp585
g11
g73
sg13
VUbuntu
p586
sg15
I400
sg16
g12
sg17
g12
sg18
V/usr/share/fonts/truetype/ubuntu-font-family/Ubuntu-RI.ttf
p587
sg20
g21
sbag1
(g8
g3
NtRp588
(dp589
g11
g56
sg13
VWaree
p590
sg15
I400
sg16
g12
sg17
g12
sg18
V/usr/share/fonts/truetype/tlwg/Waree-Oblique.ttf
p591
sg20
g21
sbag1
(g8
g3
NtRp592
(dp593
g11
g12
sg13
VPadauk Book
p594
sg15
I700
sg16
g12
sg17
g12
sg18
V/usr/share/fonts/truetype/padauk/Padauk-bookbold.ttf
p595
sg20
g21
sbag1
(g8
g3
NtRp596
(dp597
g11
g12
sg13
VNanumBarunGothic
p598
sg15
I400
sg16
g12
sg17
g12
sg18
V/usr/share/fonts/truetype/nanum/NanumBarunGothic.ttf
p599
sg20
g21
sbag1
(g8
g3
NtRp600
(dp601
g11
g12
sg13
VTlwg Typewriter
p602
sg15
I700
sg16
g12
sg17
g12
sg18
V/usr/share/fonts/truetype/tlwg/TlwgTypewriter-Bold.ttf
p603
sg20
g21
sbag1
(g8
g3
NtRp604
(dp605
g11
g56
sg13
VWaree
p606
sg15
I700
sg16
g12
sg17
g12
sg18
V/usr/share/fonts/truetype/tlwg/Waree-BoldOblique.ttf
p607
sg20
g21
sbag1
(g8
g3
NtRp608
(dp609
g11
g12
sg13
VFreeSans
p610
sg15
I400
sg16
g12
sg17
g12
sg18
V/usr/share/fonts/truetype/freefont/FreeSans.ttf
p611
sg20
g21
sbag1
(g8
g3
NtRp612
(dp613
g11
g12
sg13
VSTIXNonUnicode
p614
sg15
I700
sg16
g12
sg17
g12
sg18
V/usr/share/fonts/opentype/stix/STIXNonUnicode-Bold.otf
p615
sg20
g21
sbag1
(g8
g3
NtRp616
(dp617
g11
g56
sg13
VKinnari
p618
sg15
I400
sg16
g12
sg17
g12
sg18
V/usr/share/fonts/truetype/tlwg/Kinnari-Oblique.ttf
p619
sg20
g21
sbag1
(g8
g3
NtRp620
(dp621
g11
g12
sg13
VSaab
p622
sg15
I400
sg16
g12
sg17
g12
sg18
V/usr/share/fonts/truetype/fonts-guru-extra/Saab.ttf
p623
sg20
g21
sbag1
(g8
g3
NtRp624
(dp625
g11
g73
sg13
VFreeSerif
p626
sg15
I700
sg16
g12
sg17
g12
sg18
V/usr/share/fonts/truetype/freefont/FreeSerifBoldItalic.ttf
p627
sg20
g21
sbag1
(g8
g3
NtRp628
(dp629
g11
g12
sg13
VKacstArt
p630
sg15
I400
sg16
g12
sg17
g12
sg18
V/usr/share/fonts/truetype/kacst/KacstArt.ttf
p631
sg20
g21
sbag1
(g8
g3
NtRp632
(dp633
g11
g12
sg13
VWaree
p634
sg15
I400
sg16
g12
sg17
g12
sg18
V/usr/share/fonts/truetype/tlwg/Waree.ttf
p635
sg20
g21
sbag1
(g8
g3
NtRp636
(dp637
g11
g73
sg13
VLiberation Sans Narrow
p638
sg15
I700
sg16
Vcondensed
p639
sg17
g12
sg18
V/usr/share/fonts/truetype/liberation/LiberationSansNarrow-BoldItalic.ttf
p640
sg20
g21
sbag1
(g8
g3
NtRp641
(dp642
g11
g12
sg13
VSTIXSizeThreeSym
p643
sg15
I700
sg16
g12
sg17
g12
sg18
V/usr/share/fonts/opentype/stix/STIXSizeThreeSym-Bold.otf
p644
sg20
g21
sbag1
(g8
g3
NtRp645
(dp646
g11
g12
sg13
VUmpush
p647
sg15
I200
sg16
g12
sg17
g12
sg18
V/usr/share/fonts/truetype/tlwg/Umpush-Light.ttf
p648
sg20
g21
sbag1
(g8
g3
NtRp649
(dp650
g11
g73
sg13
VSTIX
p651
sg15
I700
sg16
g12
sg17
g12
sg18
V/usr/share/fonts/opentype/stix-word/STIX-BoldItalic.otf
p652
sg20
g21
sbag1
(g8
g3
NtRp653
(dp654
g11
g12
sg13
VSTIXIntegralsSm
p655
sg15
I700
sg16
g12
sg17
g12
sg18
V/usr/share/fonts/opentype/stix/STIXIntegralsSm-Bold.otf
p656
sg20
g21
sbag1
(g8
g3
NtRp657
(dp658
g11
g56
sg13
VPurisa
p659
sg15
I700
sg16
g12
sg17
g12
sg18
V/usr/share/fonts/truetype/tlwg/Purisa-BoldOblique.ttf
p660
sg20
g21
sbag1
(g8
g3
NtRp661
(dp662
g11
g56
sg13
VTlwg Typo
p663
sg15
I400
sg16
g12
sg17
g12
sg18
V/usr/share/fonts/truetype/tlwg/TlwgTypo-Oblique.ttf
p664
sg20
g21
sbag1
(g8
g3
NtRp665
(dp666
g11
g12
sg13
VUbuntu Condensed
p667
sg15
I400
sg16
g639
sg17
g12
sg18
V/usr/share/fonts/truetype/ubuntu-font-family/Ubuntu-C.ttf
p668
sg20
g21
sbag1
(g8
g3
NtRp669
(dp670
g11
g12
sg13
VSTIX
p671
sg15
I700
sg16
g12
sg17
g12
sg18
V/usr/share/fonts/opentype/stix-word/STIX-Bold.otf
p672
sg20
g21
sbag1
(g8
g3
NtRp673
(dp674
g11
g12
sg13
VKinnari
p675
sg15
I400
sg16
g12
sg17
g12
sg18
V/usr/share/fonts/truetype/tlwg/Kinnari.ttf
p676
sg20
g21
sbag1
(g8
g3
NtRp677
(dp678
g11
g12
sg13
VSTIXSizeTwoSym
p679
sg15
I700
sg16
g12
sg17
g12
sg18
V/usr/share/fonts/opentype/stix/STIXSizeTwoSym-Bold.otf
p680
sg20
g21
sbag1
(g8
g3
NtRp681
(dp682
g11
g73
sg13
VUbuntu Mono
p683
sg15
I700
sg16
g12
sg17
g12
sg18
V/usr/share/fonts/truetype/ubuntu-font-family/UbuntuMono-BI.ttf
p684
sg20
g21
sbag1
(g8
g3
NtRp685
(dp686
g11
g12
sg13
VSymbola
p687
sg15
I400
sg16
g12
sg17
g12
sg18
V/usr/share/fonts/truetype/ancient-scripts/Symbola_hint.ttf
p688
sg20
g21
sbag1
(g8
g3
NtRp689
(dp690
g11
g73
sg13
VUbuntu
p691
sg15
I500
sg16
g12
sg17
g12
sg18
V/usr/share/fonts/truetype/ubuntu-font-family/Ubuntu-MI.ttf
p692
sg20
g21
sbag1
(g8
g3
NtRp693
(dp694
g11
g12
sg13
VKinnari
p695
sg15
I700
sg16
g12
sg17
g12
sg18
V/usr/share/fonts/truetype/tlwg/Kinnari-Bold.ttf
p696
sg20
g21
sbag1
(g8
g3
NtRp697
(dp698
g11
g56
sg13
VFreeMono
p699
sg15
I400
sg16
g12
sg17
g12
sg18
V/usr/share/fonts/truetype/freefont/FreeMonoOblique.ttf
p700
sg20
g21
sbag1
(g8
g3
NtRp701
(dp702
g11
g73
sg13
VSTIXNonUnicode
p703
sg15
I700
sg16
g12
sg17
g12
sg18
V/usr/share/fonts/opentype/stix/STIXNonUnicode-BoldItalic.otf
p704
sg20
g21
sbag1
(g8
g3
NtRp705
(dp706
g11
g12
sg13
VTlwg Mono
p707
sg15
I400
sg16
g12
sg17
g12
sg18
V/usr/share/fonts/truetype/tlwg/TlwgMono.ttf
p708
sg20
g21
sbag1
(g8
g3
NtRp709
(dp710
g11
g56
sg13
VTlwg Typewriter
p711
sg15
I700
sg16
g12
sg17
g12
sg18
V/usr/share/fonts/truetype/tlwg/TlwgTypewriter-BoldOblique.ttf
p712
sg20
g21
sbag1
(g8
g3
NtRp713
(dp714
g11
g12
sg13
VLiberation Sans Narrow
p715
sg15
I700
sg16
g639
sg17
g12
sg18
V/usr/share/fonts/truetype/liberation/LiberationSansNarrow-Bold.ttf
p716
sg20
g21
sbag1
(g8
g3
NtRp717
(dp718
g11
g12
sg13
VSTIXSizeFourSym
p719
sg15
I700
sg16
g12
sg17
g12
sg18
V/usr/share/fonts/opentype/stix/STIXSizeFourSym-Bold.otf
p720
sg20
g21
sbag1
(g8
g3
NtRp721
(dp722
g11
g12
sg13
VFreeSerif
p723
sg15
I400
sg16
g12
sg17
g12
sg18
V/usr/share/fonts/truetype/freefont/FreeSerif.ttf
p724
sg20
g21
sbag1
(g8
g3
NtRp725
(dp726
g11
g12
sg13
VLiberation Sans Narrow
p727
sg15
I400
sg16
g639
sg17
g12
sg18
V/usr/share/fonts/truetype/liberation/LiberationSansNarrow-Regular.ttf
p728
sg20
g21
sbag1
(g8
g3
NtRp729
(dp730
g11
g12
sg13
VPhetsarath OT
p731
sg15
I400
sg16
g12
sg17
g12
sg18
V/usr/share/fonts/truetype/lao/Phetsarath_OT.ttf
p732
sg20
g21
sbag1
(g8
g3
NtRp733
(dp734
g11
g12
sg13
VSTIXVariants
p735
sg15
I700
sg16
g12
sg17
g12
sg18
V/usr/share/fonts/opentype/stix/STIXVariants-Bold.otf
p736
sg20
g21
sbag1
(g8
g3
NtRp737
(dp738
g11
g56
sg13
VPurisa
p739
sg15
I400
sg16
g12
sg17
g12
sg18
V/usr/share/fonts/truetype/tlwg/Purisa-Oblique.ttf
p740
sg20
g21
sbag1
(g8
g3
NtRp741
(dp742
g11
g73
sg13
VKinnari
p743
sg15
I400
sg16
g12
sg17
g12
sg18
V/usr/share/fonts/truetype/tlwg/Kinnari-Italic.ttf
p744
sg20
g21
sbag1
(g8
g3
NtRp745
(dp746
g11
g56
sg13
VSawasdee
p747
sg15
I700
sg16
g12
sg17
g12
sg18
V/usr/share/fonts/truetype/tlwg/Sawasdee-BoldOblique.ttf
p748
sg20
g21
sbag1
(g8
g3
NtRp749
(dp750
g11
g12
sg13
VSawasdee
p751
sg15
I700
sg16
g12
sg17
g12
sg18
V/usr/share/fonts/truetype/tlwg/Sawasdee-Bold.ttf
p752
sg20
g21
sbag1
(g8
g3
NtRp753
(dp754
g11
g12
sg13
VPadauk Book
p755
sg15
I400
sg16
g12
sg17
g12
sg18
V/usr/share/fonts/truetype/padauk/Padauk-book.ttf
p756
sg20
g21
sbag1
(g8
g3
NtRp757
(dp758
g11
g12
sg13
VSTIXIntegralsSm
p759
sg15
I400
sg16
g12
sg17
g12
sg18
V/usr/share/fonts/opentype/stix/STIXIntegralsSm-Regular.otf
p760
sg20
g21
sbag1
(g8
g3
NtRp761
(dp762
g11
g12
sg13
VSTIXIntegralsD
p763
sg15
I400
sg16
g12
sg17
g12
sg18
V/usr/share/fonts/opentype/stix/STIXIntegralsD-Regular.otf
p764
sg20
g21
sbag1
(g8
g3
NtRp765
(dp766
g11
g12
sg13
VSTIXSizeOneSym
p767
sg15
I400
sg16
g12
sg17
g12
sg18
V/usr/share/fonts/opentype/stix/STIXSizeOneSym-Regular.otf
p768
sg20
g21
sbag1
(g8
g3
NtRp769
(dp770
g11
g12
sg13
VKacstOffice
p771
sg15
I400
sg16
g12
sg17
g12
sg18
V/usr/share/fonts/truetype/kacst/KacstOffice.ttf
p772
sg20
g21
sbag1
(g8
g3
NtRp773
(dp774
g11
g12
sg13
VAbyssinica SIL
p775
sg15
I400
sg16
g12
sg17
g12
sg18
V/usr/share/fonts/truetype/abyssinica/AbyssinicaSIL-R.ttf
p776
sg20
g21
sbag1
(g8
g3
NtRp777
(dp778
g11
g56
sg13
VSawasdee
p779
sg15
I400
sg16
g12
sg17
g12
sg18
V/usr/share/fonts/truetype/tlwg/Sawasdee-Oblique.ttf
p780
sg20
g21
sbag1
(g8
g3
NtRp781
(dp782
g11
g12
sg13
VNanumMyeongjo
p783
sg15
I400
sg16
g12
sg17
g12
sg18
V/usr/share/fonts/truetype/nanum/NanumMyeongjo.ttf
p784
sg20
g21
sbag1
(g8
g3
NtRp785
(dp786
g11
g12
sg13
VSTIXIntegralsD
p787
sg15
I700
sg16
g12
sg17
g12
sg18
V/usr/share/fonts/opentype/stix/STIXIntegralsD-Bold.otf
p788
sg20
g21
sbag1
(g8
g3
NtRp789
(dp790
g11
g12
sg13
VKhmer OS
p791
sg15
I400
sg16
g12
sg17
g12
sg18
V/usr/share/fonts/truetype/ttf-khmeros-core/KhmerOS.ttf
p792
sg20
g21
sbag1
(g8
g3
NtRp793
(dp794
g11
g12
sg13
VSTIXGeneral
p795
sg15
I700
sg16
g12
sg17
g12
sg18
V/usr/share/fonts/opentype/stix/STIXGeneral-Bold.otf
p796
sg20
g21
sbag1
(g8
g3
NtRp797
(dp798
g11
g12
sg13
VPadauk
p799
sg15
I400
sg16
g12
sg17
g12
sg18
V/usr/share/fonts/truetype/padauk/Padauk.ttf
p800
sg20
g21
sbag1
(g8
g3
NtRp801
(dp802
g11
g12
sg13
VLoma
p803
sg15
I400
sg16
g12
sg17
g12
sg18
V/usr/share/fonts/truetype/tlwg/Loma.ttf
p804
sg20
g21
sbag1
(g8
g3
NtRp805
(dp806
g11
g73
sg13
VLaksaman
p807
sg15
I400
sg16
g12
sg17
g12
sg18
V/usr/share/fonts/truetype/tlwg/Laksaman-Italic.ttf
p808
sg20
g21
sbag1
(g8
g3
NtRp809
(dp810
g11
g12
sg13
VLoma
p811
sg15
I700
sg16
g12
sg17
g12
sg18
V/usr/share/fonts/truetype/tlwg/Loma-Bold.ttf
p812
sg20
g21
sbag1
(g8
g3
NtRp813
(dp814
g11
g73
sg13
VSTIX
p815
sg15
I400
sg16
g12
sg17
g12
sg18
V/usr/share/fonts/opentype/stix-word/STIX-Italic.otf
p816
sg20
g21
sbag1
(g8
g3
NtRp817
(dp818
g11
g73
sg13
VUbuntu Mono
p819
sg15
I400
sg16
g12
sg17
g12
sg18
V/usr/share/fonts/truetype/ubuntu-font-family/UbuntuMono-RI.ttf
p820
sg20
g21
sbag1
(g8
g3
NtRp821
(dp822
g11
g12
sg13
VKacstLetter
p823
sg15
I400
sg16
g12
sg17
g12
sg18
V/usr/share/fonts/truetype/kacst/KacstLetter.ttf
p824
sg20
g21
sbag1
(g8
g3
NtRp825
(dp826
g11
g12
sg13
VKacstPen
p827
sg15
I400
sg16
g12
sg17
g12
sg18
V/usr/share/fonts/truetype/kacst/KacstPen.ttf
p828
sg20
g21
sbag1
(g8
g3
NtRp829
(dp830
g11
g56
sg13
VTlwg Typo
p831
sg15
I700
sg16
g12
sg17
g12
sg18
V/usr/share/fonts/truetype/tlwg/TlwgTypo-BoldOblique.ttf
p832
sg20
g21
sbag1
(g8
g3
NtRp833
(dp834
g11
g12
sg13
VFreeMono
p835
sg15
I400
sg16
g12
sg17
g12
sg18
V/usr/share/fonts/truetype/freefont/FreeMono.ttf
p836
sg20
g21
sbag1
(g8
g3
NtRp837
(dp838
g11
g73
sg13
VFreeSerif
p839
sg15
I400
sg16
g12
sg17
g12
sg18
V/usr/share/fonts/truetype/freefont/FreeSerifItalic.ttf
p840
sg20
g21
sbag1
(g8
g3
NtRp841
(dp842
g11
g12
sg13
VKacstTitleL
p843
sg15
I400
sg16
g12
sg17
g12
sg18
V/usr/share/fonts/truetype/kacst/KacstTitleL.ttf
p844
sg20
g21
sbag1
(g8
g3
NtRp845
(dp846
g11
g12
sg13
VSTIXIntegralsUpSm
p847
sg15
I700
sg16
g12
sg17
g12
sg18
V/usr/share/fonts/opentype/stix/STIXIntegralsUpSm-Bold.otf
p848
sg20
g21
sbag1
(g8
g3
NtRp849
(dp850
g11
g12
sg13
VKacstDecorative
p851
sg15
I400
sg16
g12
sg17
g12
sg18
V/usr/share/fonts/truetype/kacst/KacstDecorative.ttf
p852
sg20
g21
sbag1
(g8
g3
NtRp853
(dp854
g11
g56
sg13
VTlwg Typewriter
p855
sg15
I400
sg16
g12
sg17
g12
sg18
V/usr/share/fonts/truetype/tlwg/TlwgTypewriter-Oblique.ttf
p856
sg20
g21
sbag1
(g8
g3
NtRp857
(dp858
g11
g73
sg13
VLiberation Sans Narrow
p859
sg15
I400
sg16
g639
sg17
g12
sg18
V/usr/share/fonts/truetype/liberation/LiberationSansNarrow-Italic.ttf
p860
sg20
g21
sbasS'defaultFamily'
p861
(dp862
Vafm
p863
VHelvetica
p864
sVttf
p865
VDejaVu Sans
p866
ssS'ttffiles'
p867
(lp868
g19
ag25
ag29
ag33
ag37
ag41
ag45
ag49
ag53
ag58
ag62
ag66
ag70
ag75
ag79
ag83
ag87
ag91
ag95
ag99
ag103
ag107
ag111
ag115
ag119
ag123
ag127
ag131
ag135
ag139
ag143
ag147
ag151
ag155
ag159
ag163
ag167
ag171
ag175
ag179
ag183
ag187
ag191
ag195
ag199
ag203
ag207
ag211
ag215
ag219
ag223
aV/usr/share/fonts/truetype/dejavu/DejaVuSerif.ttf
p869
ag227
ag231
ag235
ag239
ag243
ag247
aV/usr/share/fonts/truetype/dejavu/DejaVuSerif-Bold.ttf
p870
ag251
ag255
ag259
ag263
aV/usr/share/fonts/truetype/dejavu/DejaVuSansMono-Bold.ttf
p871
ag267
ag271
ag275
ag279
ag283
ag287
ag291
ag295
ag299
ag303
ag307
ag311
ag315
ag319
ag323
ag327
ag331
ag335
ag339
ag343
ag347
ag351
ag355
ag359
ag363
ag367
ag371
ag375
ag379
ag383
ag387
ag391
ag395
ag399
ag403
ag407
ag411
ag415
ag419
ag423
ag427
ag431
ag435
ag439
ag443
ag447
ag451
ag455
ag459
ag463
ag467
ag471
ag475
ag479
ag483
ag487
ag491
ag495
ag499
ag503
ag507
ag511
ag515
ag519
ag523
aV/usr/share/fonts/truetype/dejavu/DejaVuSansMono.ttf
p872
ag527
ag531
ag535
ag539
ag543
ag547
ag551
ag555
ag559
ag563
ag567
ag571
ag575
ag579
ag583
aV/usr/share/fonts/truetype/dejavu/DejaVuSans-Bold.ttf
p873
ag587
ag591
ag595
ag599
ag603
ag607
ag611
ag615
ag619
ag623
ag627
ag631
ag635
ag640
ag644
ag648
aV/usr/share/fonts/truetype/dejavu/DejaVuSans.ttf
p874
ag652
ag656
ag660
ag664
ag668
ag672
ag676
ag680
ag684
ag688
ag692
ag696
ag700
ag704
ag708
ag712
ag716
ag720
ag724
ag728
ag732
ag736
ag740
ag744
ag748
ag752
ag756
ag760
ag764
ag768
ag772
ag776
ag780
ag784
ag788
ag792
ag796
ag800
ag804
ag808
ag812
ag816
ag820
ag824
ag828
ag832
ag836
ag840
ag844
ag848
ag852
ag856
ag860
asS'_FontManager__default_weight'
p875
Vnormal
p876
sS'_version'
p877
I200
sS'default_size'
p878
NsS'defaultFont'
p879
(dp880
g863
V/usr/local/lib/python2.7/dist-packages/matplotlib/mpl-data/fonts/afm/cmtt10.afm
p881
sg865
g19
ssS'afmfiles'
p882
(lp883
g881
aV/usr/local/lib/python2.7/dist-packages/matplotlib/mpl-data/fonts/afm/pncbi8a.afm
p884
aV/usr/local/lib/python2.7/dist-packages/matplotlib/mpl-data/fonts/pdfcorefonts/Helvetica-BoldOblique.afm
p885
aV/usr/local/lib/python2.7/dist-packages/matplotlib/mpl-data/fonts/pdfcorefonts/Times-BoldItalic.afm
p886
aV/usr/local/lib/python2.7/dist-packages/matplotlib/mpl-data/fonts/afm/putb8a.afm
p887
aV/usr/local/lib/python2.7/dist-packages/matplotlib/mpl-data/fonts/afm/pplbi8a.afm
p888
aV/usr/local/lib/python2.7/dist-packages/matplotlib/mpl-data/fonts/afm/phvb8an.afm
p889
aV/usr/local/lib/python2.7/dist-packages/matplotlib/mpl-data/fonts/afm/phvlo8a.afm
p890
aV/usr/local/lib/python2.7/dist-packages/matplotlib/mpl-data/fonts/afm/pzcmi8a.afm
p891
aV/usr/local/lib/python2.7/dist-packages/matplotlib/mpl-data/fonts/afm/putri8a.afm
p892
aV/usr/local/lib/python2.7/dist-packages/matplotlib/mpl-data/fonts/afm/phvro8a.afm
p893
aV/usr/local/lib/python2.7/dist-packages/matplotlib/mpl-data/fonts/pdfcorefonts/Times-Roman.afm
p894
aV/usr/local/lib/python2.7/dist-packages/matplotlib/mpl-data/fonts/afm/pcrr8a.afm
p895
aV/usr/local/lib/python2.7/dist-packages/matplotlib/mpl-data/fonts/afm/ptmb8a.afm
p896
aV/usr/local/lib/python2.7/dist-packages/matplotlib/mpl-data/fonts/afm/putr8a.afm
p897
aV/usr/local/lib/python2.7/dist-packages/matplotlib/mpl-data/fonts/afm/pzdr.afm
p898
aV/usr/local/lib/python2.7/dist-packages/matplotlib/mpl-data/fonts/afm/pbkdi8a.afm
p899
aV/usr/local/lib/python2.7/dist-packages/matplotlib/mpl-data/fonts/afm/phvbo8a.afm
p900
aV/usr/local/lib/python2.7/dist-packages/matplotlib/mpl-data/fonts/afm/pncr8a.afm
p901
aV/usr/local/lib/python2.7/dist-packages/matplotlib/mpl-data/fonts/afm/pagd8a.afm
p902
aV/usr/local/lib/python2.7/dist-packages/matplotlib/mpl-data/fonts/pdfcorefonts/Courier-Oblique.afm
p903
aV/usr/local/lib/python2.7/dist-packages/matplotlib/mpl-data/fonts/pdfcorefonts/Courier-BoldOblique.afm
p904
aV/usr/local/lib/python2.7/dist-packages/matplotlib/mpl-data/fonts/afm/phvl8a.afm
p905
aV/usr/local/lib/python2.7/dist-packages/matplotlib/mpl-data/fonts/afm/pbkd8a.afm
p906
aV/usr/local/lib/python2.7/dist-packages/matplotlib/mpl-data/fonts/afm/pcrbo8a.afm
p907
aV/usr/local/lib/python2.7/dist-packages/matplotlib/mpl-data/fonts/pdfcorefonts/Courier.afm
p908
aV/usr/local/lib/python2.7/dist-packages/matplotlib/mpl-data/fonts/afm/cmmi10.afm
p909
aV/usr/local/lib/python2.7/dist-packages/matplotlib/mpl-data/fonts/afm/pagk8a.afm
p910
aV/usr/local/lib/python2.7/dist-packages/matplotlib/mpl-data/fonts/afm/pncb8a.afm
p911
aV/usr/local/lib/python2.7/dist-packages/matplotlib/mpl-data/fonts/afm/ptmri8a.afm
p912
aV/usr/local/lib/python2.7/dist-packages/matplotlib/mpl-data/fonts/afm/pagdo8a.afm
p913
aV/usr/local/lib/python2.7/dist-packages/matplotlib/mpl-data/fonts/afm/phvr8an.afm
p914
aV/usr/local/lib/python2.7/dist-packages/matplotlib/mpl-data/fonts/afm/phvro8an.afm
p915
aV/usr/local/lib/python2.7/dist-packages/matplotlib/mpl-data/fonts/pdfcorefonts/ZapfDingbats.afm
p916
aV/usr/local/lib/python2.7/dist-packages/matplotlib/mpl-data/fonts/afm/pbkl8a.afm
p917
aV/usr/local/lib/python2.7/dist-packages/matplotlib/mpl-data/fonts/afm/pcrro8a.afm
p918
aV/usr/local/lib/python2.7/dist-packages/matplotlib/mpl-data/fonts/afm/cmsy10.afm
p919
aV/usr/local/lib/python2.7/dist-packages/matplotlib/mpl-data/fonts/pdfcorefonts/Helvetica.afm
p920
aV/usr/local/lib/python2.7/dist-packages/matplotlib/mpl-data/fonts/pdfcorefonts/Courier-Bold.afm
p921
aV/usr/local/lib/python2.7/dist-packages/matplotlib/mpl-data/fonts/afm/pcrb8a.afm
p922
aV/usr/local/lib/python2.7/dist-packages/matplotlib/mpl-data/fonts/afm/pbkli8a.afm
p923
aV/usr/local/lib/python2.7/dist-packages/matplotlib/mpl-data/fonts/pdfcorefonts/Helvetica-Oblique.afm
p924
aV/usr/local/lib/python2.7/dist-packages/matplotlib/mpl-data/fonts/afm/cmr10.afm
p925
aV/usr/local/lib/python2.7/dist-packages/matplotlib/mpl-data/fonts/afm/cmex10.afm
p926
aV/usr/local/lib/python2.7/dist-packages/matplotlib/mpl-data/fonts/afm/phvb8a.afm
p927
aV/usr/local/lib/python2.7/dist-packages/matplotlib/mpl-data/fonts/afm/pplri8a.afm
p928
aV/usr/local/lib/python2.7/dist-packages/matplotlib/mpl-data/fonts/afm/ptmbi8a.afm
p929
aV/usr/local/lib/python2.7/dist-packages/matplotlib/mpl-data/fonts/afm/pplb8a.afm
p930
aV/usr/local/lib/python2.7/dist-packages/matplotlib/mpl-data/fonts/afm/putbi8a.afm
p931
aV/usr/local/lib/python2.7/dist-packages/matplotlib/mpl-data/fonts/afm/psyr.afm
p932
aV/usr/local/lib/python2.7/dist-packages/matplotlib/mpl-data/fonts/pdfcorefonts/Times-Bold.afm
p933
aV/usr/local/lib/python2.7/dist-packages/matplotlib/mpl-data/fonts/afm/phvbo8an.afm
p934
aV/usr/local/lib/python2.7/dist-packages/matplotlib/mpl-data/fonts/afm/pplr8a.afm
p935
aV/usr/local/lib/python2.7/dist-packages/matplotlib/mpl-data/fonts/afm/ptmr8a.afm
p936
aV/usr/local/lib/python2.7/dist-packages/matplotlib/mpl-data/fonts/afm/phvr8a.afm
p937
aV/usr/local/lib/python2.7/dist-packages/matplotlib/mpl-data/fonts/afm/pncri8a.afm
p938
aV/usr/local/lib/python2.7/dist-packages/matplotlib/mpl-data/fonts/pdfcorefonts/Symbol.afm
p939
aV/usr/local/lib/python2.7/dist-packages/matplotlib/mpl-data/fonts/afm/pagko8a.afm
p940
aV/usr/local/lib/python2.7/dist-packages/matplotlib/mpl-data/fonts/pdfcorefonts/Helvetica-Bold.afm
p941
aV/usr/local/lib/python2.7/dist-packages/matplotlib/mpl-data/fonts/pdfcorefonts/Times-Italic.afm
p942
aV/usr/share/fonts/type1/gsfonts/n021024l.afm
p943
aV/usr/share/fonts/type1/gsfonts/n019024l.afm
p944
aV/usr/share/fonts/type1/gsfonts/n021004l.afm
p945
aV/usr/share/fonts/type1/gsfonts/s050000l.afm
p946
aV/usr/share/fonts/type1/gsfonts/d050000l.afm
p947
aV/usr/share/fonts/type1/gsfonts/p052004l.afm
p948
aV/usr/share/fonts/type1/gsfonts/n019044l.afm
p949
aV/usr/share/fonts/type1/gsfonts/n019064l.afm
p950
aV/usr/share/fonts/type1/gsfonts/n022003l.afm
p951
aV/usr/share/fonts/type1/gsfonts/c059013l.afm
p952
aV/usr/share/fonts/type1/gsfonts/a010033l.afm
p953
aV/usr/share/fonts/type1/gsfonts/c059036l.afm
p954
aV/usr/share/fonts/type1/gsfonts/z003034l.afm
p955
aV/usr/share/fonts/type1/gsfonts/n022024l.afm
p956
aV/usr/share/fonts/type1/gsfonts/c059033l.afm
p957
aV/usr/share/fonts/X11/Type1/c0633bt_.afm
p958
aV/usr/share/fonts/X11/Type1/c0649bt_.afm
p959
aV/usr/share/fonts/type1/gsfonts/b018012l.afm
p960
aV/usr/share/fonts/type1/gsfonts/n019003l.afm
p961
aV/usr/share/fonts/type1/gsfonts/p052024l.afm
p962
aV/usr/share/fonts/type1/gsfonts/b018035l.afm
p963
aV/usr/share/fonts/type1/gsfonts/a010013l.afm
p964
aV/usr/share/fonts/X11/Type1/c0582bt_.afm
p965
aV/usr/share/fonts/type1/gsfonts/n022004l.afm
p966
aV/usr/share/fonts/X11/Type1/c0583bt_.afm
p967
aV/usr/share/fonts/type1/gsfonts/a010035l.afm
p968
aV/usr/share/fonts/type1/gsfonts/n019043l.afm
p969
aV/usr/share/fonts/type1/gsfonts/n019023l.afm
p970
aV/usr/share/fonts/type1/gsfonts/n019063l.afm
p971
aV/usr/share/fonts/X11/Type1/c0611bt_.afm
p972
aV/usr/share/fonts/type1/gsfonts/p052023l.afm
p973
aV/usr/share/fonts/type1/gsfonts/n019004l.afm
p974
aV/usr/share/fonts/type1/gsfonts/p052003l.afm
p975
aV/usr/share/fonts/type1/gsfonts/a010015l.afm
p976
aV/usr/share/fonts/type1/gsfonts/b018032l.afm
p977
aV/usr/share/fonts/type1/gsfonts/c059016l.afm
p978
aV/usr/share/fonts/X11/Type1/c0648bt_.afm
p979
aV/usr/share/fonts/type1/gsfonts/n022023l.afm
p980
aV/usr/share/fonts/type1/gsfonts/n021023l.afm
p981
aV/usr/share/fonts/type1/gsfonts/n021003l.afm
p982
aV/usr/share/fonts/type1/gsfonts/b018015l.afm
p983
aV/usr/share/fonts/X11/Type1/c0632bt_.afm
p984
aV/usr/share/fonts/X11/Type1/c0419bt_.afm
p985
asS'afmlist'
p986
(lp987
g1
(g8
g3
NtRp988
(dp989
g11
Vnormal
p990
sg13
S'Computer Modern'
p991
sg15
I500
sg16
g990
sg17
g990
sg18
g881
sg20
Vscalable
p992
sbag1
(g8
g3
NtRp993
(dp994
g11
Vitalic
p995
sg13
S'New Century Schoolbook'
p996
sg15
I700
sg16
g990
sg17
g990
sg18
g884
sg20
g992
sbag1
(g8
g3
NtRp997
(dp998
g11
g995
sg13
S'Helvetica'
p999
sg15
I700
sg16
g990
sg17
g990
sg18
g885
sg20
g992
sbag1
(g8
g3
NtRp1000
(dp1001
g11
g995
sg13
S'Times'
p1002
sg15
I700
sg16
g990
sg17
g990
sg18
g886
sg20
g992
sbag1
(g8
g3
NtRp1003
(dp1004
g11
g990
sg13
S'Utopia'
p1005
sg15
I700
sg16
g990
sg17
g990
sg18
g887
sg20
g992
sbag1
(g8
g3
NtRp1006
(dp1007
g11
g995
sg13
S'Palatino'
p1008
sg15
I700
sg16
g990
sg17
g990
sg18
g888
sg20
g992
sbag1
(g8
g3
NtRp1009
(dp1010
g11
g990
sg13
S'Helvetica'
p1011
sg15
I700
sg16
Vcondensed
p1012
sg17
g990
sg18
g889
sg20
g992
sbag1
(g8
g3
NtRp1013
(dp1014
g11
g995
sg13
S'Helvetica'
p1015
sg15
I200
sg16
g990
sg17
g990
sg18
g890
sg20
g992
sbag1
(g8
g3
NtRp1016
(dp1017
g11
g995
sg13
S'ITC Zapf Chancery'
p1018
sg15
I500
sg16
g990
sg17
g990
sg18
g891
sg20
g992
sbag1
(g8
g3
NtRp1019
(dp1020
g11
g995
sg13
S'Utopia'
p1021
sg15
I400
sg16
g990
sg17
g990
sg18
g892
sg20
g992
sbag1
(g8
g3
NtRp1022
(dp1023
g11
g995
sg13
S'Helvetica'
p1024
sg15
I500
sg16
g990
sg17
g990
sg18
g893
sg20
g992
sbag1
(g8
g3
NtRp1025
(dp1026
g11
g990
sg13
S'Times'
p1027
sg15
I500
sg16
g990
sg17
g990
sg18
g894
sg20
g992
sbag1
(g8
g3
NtRp1028
(dp1029
g11
g990
sg13
S'Courier'
p1030
sg15
I500
sg16
g990
sg17
g990
sg18
g895
sg20
g992
sbag1
(g8
g3
NtRp1031
(dp1032
g11
g990
sg13
S'Times'
p1033
sg15
I700
sg16
g990
sg17
g990
sg18
g896
sg20
g992
sbag1
(g8
g3
NtRp1034
(dp1035
g11
g990
sg13
S'Utopia'
p1036
sg15
I400
sg16
g990
sg17
g990
sg18
g897
sg20
g992
sbag1
(g8
g3
NtRp1037
(dp1038
g11
g990
sg13
S'ITC Zapf Dingbats'
p1039
sg15
I500
sg16
g990
sg17
g990
sg18
g898
sg20
g992
sbag1
(g8
g3
NtRp1040
(dp1041
g11
g995
sg13
S'ITC Bookman'
p1042
sg15
I600
sg16
g990
sg17
g990
sg18
g899
sg20
g992
sbag1
(g8
g3
NtRp1043
(dp1044
g11
g995
sg13
S'Helvetica'
p1045
sg15
I700
sg16
g990
sg17
g990
sg18
g900
sg20
g992
sbag1
(g8
g3
NtRp1046
(dp1047
g11
g990
sg13
S'New Century Schoolbook'
p1048
sg15
I500
sg16
g990
sg17
g990
sg18
g901
sg20
g992
sbag1
(g8
g3
NtRp1049
(dp1050
g11
g990
sg13
S'ITC Avant Garde Gothic'
p1051
sg15
I600
sg16
g990
sg17
g990
sg18
g902
sg20
g992
sbag1
(g8
g3
NtRp1052
(dp1053
g11
g995
sg13
S'Courier'
p1054
sg15
I500
sg16
g990
sg17
g990
sg18
g903
sg20
g992
sbag1
(g8
g3
NtRp1055
(dp1056
g11
g995
sg13
S'Courier'
p1057
sg15
I700
sg16
g990
sg17
g990
sg18
g904
sg20
g992
sbag1
(g8
g3
NtRp1058
(dp1059
g11
g990
sg13
S'Helvetica'
p1060
sg15
I200
sg16
g990
sg17
g990
sg18
g905
sg20
g992
sbag1
(g8
g3
NtRp1061
(dp1062
g11
g990
sg13
S'ITC Bookman'
p1063
sg15
I600
sg16
g990
sg17
g990
sg18
g906
sg20
g992
sbag1
(g8
g3
NtRp1064
(dp1065
g11
g995
sg13
S'Courier'
p1066
sg15
I700
sg16
g990
sg17
g990
sg18
g907
sg20
g992
sbag1
(g8
g3
NtRp1067
(dp1068
g11
g990
sg13
S'Courier'
p1069
sg15
I500
sg16
g990
sg17
g990
sg18
g908
sg20
g992
sbag1
(g8
g3
NtRp1070
(dp1071
g11
g995
sg13
S'Computer Modern'
p1072
sg15
I500
sg16
g990
sg17
g990
sg18
g909
sg20
g992
sbag1
(g8
g3
NtRp1073
(dp1074
g11
g990
sg13
S'ITC Avant Garde Gothic'
p1075
sg15
I400
sg16
g990
sg17
g990
sg18
g910
sg20
g992
sbag1
(g8
g3
NtRp1076
(dp1077
g11
g990
sg13
S'New Century Schoolbook'
p1078
sg15
I700
sg16
g990
sg17
g990
sg18
g911
sg20
g992
sbag1
(g8
g3
NtRp1079
(dp1080
g11
g995
sg13
S'Times'
p1081
sg15
I500
sg16
g990
sg17
g990
sg18
g912
sg20
g992
sbag1
(g8
g3
NtRp1082
(dp1083
g11
g995
sg13
S'ITC Avant Garde Gothic'
p1084
sg15
I600
sg16
g990
sg17
g990
sg18
g913
sg20
g992
sbag1
(g8
g3
NtRp1085
(dp1086
g11
g990
sg13
S'Helvetica'
p1087
sg15
I500
sg16
g1012
sg17
g990
sg18
g914
sg20
g992
sbag1
(g8
g3
NtRp1088
(dp1089
g11
g995
sg13
S'Helvetica'
p1090
sg15
I500
sg16
g1012
sg17
g990
sg18
g915
sg20
g992
sbag1
(g8
g3
NtRp1091
(dp1092
g11
g990
sg13
S'ZapfDingbats'
p1093
sg15
I500
sg16
g990
sg17
g990
sg18
g916
sg20
g992
sbag1
(g8
g3
NtRp1094
(dp1095
g11
g990
sg13
S'ITC Bookman'
p1096
sg15
I200
sg16
g990
sg17
g990
sg18
g917
sg20
g992
sbag1
(g8
g3
NtRp1097
(dp1098
g11
g995
sg13
S'Courier'
p1099
sg15
I500
sg16
g990
sg17
g990
sg18
g918
sg20
g992
sbag1
(g8
g3
NtRp1100
(dp1101
g11
g995
sg13
S'Computer Modern'
p1102
sg15
I500
sg16
g990
sg17
g990
sg18
g919
sg20
g992
sbag1
(g8
g3
NtRp1103
(dp1104
g11
g990
sg13
S'Helvetica'
p1105
sg15
I500
sg16
g990
sg17
g990
sg18
g920
sg20
g992
sbag1
(g8
g3
NtRp1106
(dp1107
g11
g990
sg13
S'Courier'
p1108
sg15
I700
sg16
g990
sg17
g990
sg18
g921
sg20
g992
sbag1
(g8
g3
NtRp1109
(dp1110
g11
g990
sg13
S'Courier'
p1111
sg15
I700
sg16
g990
sg17
g990
sg18
g922
sg20
g992
sbag1
(g8
g3
NtRp1112
(dp1113
g11
g995
sg13
S'ITC Bookman'
p1114
sg15
I200
sg16
g990
sg17
g990
sg18
g923
sg20
g992
sbag1
(g8
g3
NtRp1115
(dp1116
g11
g995
sg13
S'Helvetica'
p1117
sg15
I500
sg16
g990
sg17
g990
sg18
g924
sg20
g992
sbag1
(g8
g3
NtRp1118
(dp1119
g11
g990
sg13
S'Computer Modern'
p1120
sg15
I500
sg16
g990
sg17
g990
sg18
g925
sg20
g992
sbag1
(g8
g3
NtRp1121
(dp1122
g11
g990
sg13
S'Computer Modern'
p1123
sg15
I500
sg16
g990
sg17
g990
sg18
g926
sg20
g992
sbag1
(g8
g3
NtRp1124
(dp1125
g11
g990
sg13
S'Helvetica'
p1126
sg15
I700
sg16
g990
sg17
g990
sg18
g927
sg20
g992
sbag1
(g8
g3
NtRp1127
(dp1128
g11
g995
sg13
S'Palatino'
p1129
sg15
I500
sg16
g990
sg17
g990
sg18
g928
sg20
g992
sbag1
(g8
g3
NtRp1130
(dp1131
g11
g995
sg13
S'Times'
p1132
sg15
I700
sg16
g990
sg17
g990
sg18
g929
sg20
g992
sbag1
(g8
g3
NtRp1133
(dp1134
g11
g990
sg13
S'Palatino'
p1135
sg15
I700
sg16
g990
sg17
g990
sg18
g930
sg20
g992
sbag1
(g8
g3
NtRp1136
(dp1137
g11
g995
sg13
S'Utopia'
p1138
sg15
I700
sg16
g990
sg17
g990
sg18
g931
sg20
g992
sbag1
(g8
g3
NtRp1139
(dp1140
g11
g990
sg13
S'Symbol'
p1141
sg15
I500
sg16
g990
sg17
g990
sg18
g932
sg20
g992
sbag1
(g8
g3
NtRp1142
(dp1143
g11
g990
sg13
S'Times'
p1144
sg15
I700
sg16
g990
sg17
g990
sg18
g933
sg20
g992
sbag1
(g8
g3
NtRp1145
(dp1146
g11
g995
sg13
S'Helvetica'
p1147
sg15
I700
sg16
g1012
sg17
g990
sg18
g934
sg20
g992
sbag1
(g8
g3
NtRp1148
(dp1149
g11
g990
sg13
S'Palatino'
p1150
sg15
I500
sg16
g990
sg17
g990
sg18
g935
sg20
g992
sbag1
(g8
g3
NtRp1151
(dp1152
g11
g990
sg13
S'Times'
p1153
sg15
I500
sg16
g990
sg17
g990
sg18
g936
sg20
g992
sbag1
(g8
g3
NtRp1154
(dp1155
g11
g990
sg13
S'Helvetica'
p1156
sg15
I500
sg16
g990
sg17
g990
sg18
g937
sg20
g992
sbag1
(g8
g3
NtRp1157
(dp1158
g11
g995
sg13
S'New Century Schoolbook'
p1159
sg15
I500
sg16
g990
sg17
g990
sg18
g938
sg20
g992
sbag1
(g8
g3
NtRp1160
(dp1161
g11
g990
sg13
S'Symbol'
p1162
sg15
I500
sg16
g990
sg17
g990
sg18
g939
sg20
g992
sbag1
(g8
g3
NtRp1163
(dp1164
g11
g995
sg13
S'ITC Avant Garde Gothic'
p1165
sg15
I400
sg16
g990
sg17
g990
sg18
g940
sg20
g992
sbag1
(g8
g3
NtRp1166
(dp1167
g11
g990
sg13
S'Helvetica'
p1168
sg15
I700
sg16
g990
sg17
g990
sg18
g941
sg20
g992
sbag1
(g8
g3
NtRp1169
(dp1170
g11
g995
sg13
S'Times'
p1171
sg15
I500
sg16
g990
sg17
g990
sg18
g942
sg20
g992
sbag1
(g8
g3
NtRp1172
(dp1173
g11
g995
sg13
S'Nimbus Roman No9 L'
p1174
sg15
I700
sg16
g990
sg17
g990
sg18
g943
sg20
g992
sbag1
(g8
g3
NtRp1175
(dp1176
g11
g995
sg13
S'Nimbus Sans L'
p1177
sg15
I700
sg16
g990
sg17
g990
sg18
g944
sg20
g992
sbag1
(g8
g3
NtRp1178
(dp1179
g11
g990
sg13
S'Nimbus Roman No9 L'
p1180
sg15
I700
sg16
g990
sg17
g990
sg18
g945
sg20
g992
sbag1
(g8
g3
NtRp1181
(dp1182
g11
g990
sg13
S'Standard Symbols L'
p1183
sg15
I400
sg16
g990
sg17
g990
sg18
g946
sg20
g992
sbag1
(g8
g3
NtRp1184
(dp1185
g11
g990
sg13
S'Dingbats'
p1186
sg15
I400
sg16
g990
sg17
g990
sg18
g947
sg20
g992
sbag1
(g8
g3
NtRp1187
(dp1188
g11
g990
sg13
S'URW Palladio L'
p1189
sg15
I700
sg16
g990
sg17
g990
sg18
g948
sg20
g992
sbag1
(g8
g3
NtRp1190
(dp1191
g11
g990
sg13
S'Nimbus Sans L'
p1192
sg15
I700
sg16
g1012
sg17
g990
sg18
g949
sg20
g992
sbag1
(g8
g3
NtRp1193
(dp1194
g11
g995
sg13
S'Nimbus Sans L'
p1195
sg15
I700
sg16
g1012
sg17
g990
sg18
g950
sg20
g992
sbag1
(g8
g3
NtRp1196
(dp1197
g11
g990
sg13
S'Nimbus Mono L'
p1198
sg15
I400
sg16
g990
sg17
g990
sg18
g951
sg20
g992
sbag1
(g8
g3
NtRp1199
(dp1200
g11
g990
sg13
S'Century Schoolbook L'
p1201
sg15
I500
sg16
g990
sg17
g990
sg18
g952
sg20
g992
sbag1
(g8
g3
NtRp1202
(dp1203
g11
g995
sg13
S'URW Gothic L'
p1204
sg15
I400
sg16
g990
sg17
g990
sg18
g953
sg20
g992
sbag1
(g8
g3
NtRp1205
(dp1206
g11
g995
sg13
S'Century Schoolbook L'
p1207
sg15
I700
sg16
g990
sg17
g990
sg18
g954
sg20
g992
sbag1
(g8
g3
NtRp1208
(dp1209
g11
g995
sg13
S'URW Chancery L'
p1210
sg15
I500
sg16
g990
sg17
g990
sg18
g955
sg20
g992
sbag1
(g8
g3
NtRp1211
(dp1212
g11
g995
sg13
S'Nimbus Mono L'
p1213
sg15
I700
sg16
g990
sg17
g990
sg18
g956
sg20
g992
sbag1
(g8
g3
NtRp1214
(dp1215
g11
g995
sg13
S'Century Schoolbook L'
p1216
sg15
I400
sg16
g990
sg17
g990
sg18
g957
sg20
g992
sbag1
(g8
g3
NtRp1217
(dp1218
g11
g995
sg13
S'Bitstream Charter'
p1219
sg15
I700
sg16
g990
sg17
g990
sg18
g958
sg20
g992
sbag1
(g8
g3
NtRp1220
(dp1221
g11
g995
sg13
S'Bitstream Charter'
p1222
sg15
I400
sg16
g990
sg17
g990
sg18
g959
sg20
g992
sbag1
(g8
g3
NtRp1223
(dp1224
g11
g990
sg13
S'URW Bookman L'
p1225
sg15
I400
sg16
g990
sg17
g990
sg18
g960
sg20
g992
sbag1
(g8
g3
NtRp1226
(dp1227
g11
g990
sg13
S'Nimbus Sans L'
p1228
sg15
I400
sg16
g990
sg17
g990
sg18
g961
sg20
g992
sbag1
(g8
g3
NtRp1229
(dp1230
g11
g995
sg13
S'URW Palladio L'
p1231
sg15
I700
sg16
g990
sg17
g990
sg18
g962
sg20
g992
sbag1
(g8
g3
NtRp1232
(dp1233
g11
g995
sg13
S'URW Bookman L'
p1234
sg15
I700
sg16
g990
sg17
g990
sg18
g963
sg20
g992
sbag1
(g8
g3
NtRp1235
(dp1236
g11
g990
sg13
S'URW Gothic L'
p1237
sg15
I400
sg16
g990
sg17
g990
sg18
g964
sg20
g992
sbag1
(g8
g3
NtRp1238
(dp1239
g11
g995
sg13
S'Courier 10 Pitch'
p1240
sg15
I400
sg16
g990
sg17
g990
sg18
g965
sg20
g992
sbag1
(g8
g3
NtRp1241
(dp1242
g11
g990
sg13
S'Nimbus Mono L'
p1243
sg15
I700
sg16
g990
sg17
g990
sg18
g966
sg20
g992
sbag1
(g8
g3
NtRp1244
(dp1245
g11
g990
sg13
S'Courier 10 Pitch'
p1246
sg15
I700
sg16
g990
sg17
g990
sg18
g967
sg20
g992
sbag1
(g8
g3
NtRp1247
(dp1248
g11
g995
sg13
S'URW Gothic L'
p1249
sg15
I600
sg16
g990
sg17
g990
sg18
g968
sg20
g992
sbag1
(g8
g3
NtRp1250
(dp1251
g11
g990
sg13
S'Nimbus Sans L'
p1252
sg15
I400
sg16
g1012
sg17
g990
sg18
g969
sg20
g992
sbag1
(g8
g3
NtRp1253
(dp1254
g11
g995
sg13
S'Nimbus Sans L'
p1255
sg15
I400
sg16
g990
sg17
g990
sg18
g970
sg20
g992
sbag1
(g8
g3
NtRp1256
(dp1257
g11
g995
sg13
S'Nimbus Sans L'
p1258
sg15
I400
sg16
g1012
sg17
g990
sg18
g971
sg20
g992
sbag1
(g8
g3
NtRp1259
(dp1260
g11
g995
sg13
S'Courier 10 Pitch'
p1261
sg15
I700
sg16
g990
sg17
g990
sg18
g972
sg20
g992
sbag1
(g8
g3
NtRp1262
(dp1263
g11
g995
sg13
S'URW Palladio L'
p1264
sg15
I400
sg16
g990
sg17
g990
sg18
g973
sg20
g992
sbag1
(g8
g3
NtRp1265
(dp1266
g11
g990
sg13
S'Nimbus Sans L'
p1267
sg15
I700
sg16
g990
sg17
g990
sg18
g974
sg20
g992
sbag1
(g8
g3
NtRp1268
(dp1269
g11
g990
sg13
S'URW Palladio L'
p1270
sg15
I500
sg16
g990
sg17
g990
sg18
g975
sg20
g992
sbag1
(g8
g3
NtRp1271
(dp1272
g11
g990
sg13
S'URW Gothic L'
p1273
sg15
I600
sg16
g990
sg17
g990
sg18
g976
sg20
g992
sbag1
(g8
g3
NtRp1274
(dp1275
g11
g995
sg13
S'URW Bookman L'
p1276
sg15
I400
sg16
g990
sg17
g990
sg18
g977
sg20
g992
sbag1
(g8
g3
NtRp1277
(dp1278
g11
g990
sg13
S'Century Schoolbook L'
p1279
sg15
I700
sg16
g990
sg17
g990
sg18
g978
sg20
g992
sbag1
(g8
g3
NtRp1280
(dp1281
g11
g990
sg13
S'Bitstream Charter'
p1282
sg15
I400
sg16
g990
sg17
g990
sg18
g979
sg20
g992
sbag1
(g8
g3
NtRp1283
(dp1284
g11
g995
sg13
S'Nimbus Mono L'
p1285
sg15
I400
sg16
g990
sg17
g990
sg18
g980
sg20
g992
sbag1
(g8
g3
NtRp1286
(dp1287
g11
g995
sg13
S'Nimbus Roman No9 L'
p1288
sg15
I400
sg16
g990
sg17
g990
sg18
g981
sg20
g992
sbag1
(g8
g3
NtRp1289
(dp1290
g11
g990
sg13
S'Nimbus Roman No9 L'
p1291
sg15
I400
sg16
g990
sg17
g990
sg18
g982
sg20
g992
sbag1
(g8
g3
NtRp1292
(dp1293
g11
g990
sg13
S'URW Bookman L'
p1294
sg15
I700
sg16
g990
sg17
g990
sg18
g983
sg20
g992
sbag1
(g8
g3
NtRp1295
(dp1296
g11
g990
sg13
S'Bitstream Charter'
p1297
sg15
I700
sg16
g990
sg17
g990
sg18
g984
sg20
g992
sbag1
(g8
g3
NtRp1298
(dp1299
g11
g990
sg13
S'Courier 10 Pitch'
p1300
sg15
I400
sg16
g990
sg17
g990
sg18
g985
sg20
g992
sbasb.